; Function Attrs: mustprogress nounwind uwtable
define dso_local noundef zeroext i1 @_ZNK4llvm18TargetLoweringBase18allowsMemoryAccessERNS_11LLVMContextERKNS_10DataLayoutENS_3EVTEjNS_5AlignENS_17MachineMemOperand5FlagsEPj(ptr noundef nonnull align 8 dereferenceable(408123) %0, ptr noundef nonnull align 8 dereferenceable(8) %1, ptr noundef nonnull align 8 dereferenceable(512) %2, i16 %3, ptr %4, i32 noundef %5, i8 %6, i16 noundef zeroext %7, ptr noundef %8) unnamed_addr #0 align 2 {
  %10 = alloca %"struct.llvm::EVT", align 8
  call void @llvm.lifetime.start.p0(i64 16, ptr nonnull %10)
  store i16 %3, ptr %10, align 8
  %11 = getelementptr inbounds nuw i8, ptr %10, i64 8
  store ptr %4, ptr %11, align 8
  %12 = call noundef ptr @_ZNK4llvm3EVT13getTypeForEVTERNS_11LLVMContextE(ptr noundef nonnull align 8 dereferenceable(16) %10, ptr noundef nonnull align 8 dereferenceable(8) %1) #26
  %13 = load i16, ptr %10, align 8
  %.not.i.i.i = icmp eq i16 %13, 0
  br i1 %.not.i.i.i, label %18, label %14

14:                                               ; preds = %9
  %15 = zext i16 %13 to i64
  %16 = add nsw i64 %15, -1
  %17 = getelementptr inbounds [240 x %"class.llvm::TypeSize"], ptr @_ZZNK4llvm3MVT13getSizeInBitsEvE9SizeTable, i64 0, i64 %16
  %.sroa.0.0.copyload.i.i.i.i = load i64, ptr %17, align 16
  br label %_ZNK4llvm3EVT11isZeroSizedEv.exit.i

18:                                               ; preds = %9
  %19 = call { i64, i8 } @_ZNK4llvm3EVT21getExtendedSizeInBitsEv(ptr noundef nonnull align 8 dereferenceable(16) %10) #27
  %20 = extractvalue { i64, i8 } %19, 0
  br label %_ZNK4llvm3EVT11isZeroSizedEv.exit.i

_ZNK4llvm3EVT11isZeroSizedEv.exit.i:              ; preds = %18, %14
  %.pn.i.i.i = phi i64 [ %.sroa.0.0.copyload.i.i.i.i, %14 ], [ %20, %18 ]
  %21 = icmp eq i64 %.pn.i.i.i, 0
  br i1 %21, label %24, label %22

22:                                               ; preds = %_ZNK4llvm3EVT11isZeroSizedEv.exit.i
  %23 = call i8 @_ZNK4llvm10DataLayout15getABITypeAlignEPNS_4TypeE(ptr noundef nonnull align 8 dereferenceable(512) %2, ptr noundef %12) #26
  %.not16.i = icmp ult i8 %6, %23
  br i1 %.not16.i, label %26, label %24

24:                                               ; preds = %22, %_ZNK4llvm3EVT11isZeroSizedEv.exit.i
  %.not.i = icmp eq ptr %8, null
  br i1 %.not.i, label %_ZNK4llvm18TargetLoweringBase30allowsMemoryAccessForAlignmentERNS_11LLVMContextERKNS_10DataLayoutENS_3EVTEjNS_5AlignENS_17MachineMemOperand5FlagsEPj.exit, label %25

25:                                               ; preds = %24
  store i32 1, ptr %8, align 4
  br label %_ZNK4llvm18TargetLoweringBase30allowsMemoryAccessForAlignmentERNS_11LLVMContextERKNS_10DataLayoutENS_3EVTEjNS_5AlignENS_17MachineMemOperand5FlagsEPj.exit

26:                                               ; preds = %22
  %.sroa.01.0.copyload.i = load i16, ptr %10, align 8
  %.sroa.22.0.copyload.i = load ptr, ptr %11, align 8
  %27 = load ptr, ptr %0, align 8
  %28 = getelementptr inbounds i8, ptr %27, i64 800
  %29 = load ptr, ptr %28, align 8
  %30 = call noundef zeroext i1 %29(ptr noundef nonnull align 8 dereferenceable(408123) %0, i16 %.sroa.01.0.copyload.i, ptr %.sroa.22.0.copyload.i, i32 noundef %5, i8 %6, i16 noundef zeroext %7, ptr noundef %8) #26
  br label %_ZNK4llvm18TargetLoweringBase30allowsMemoryAccessForAlignmentERNS_11LLVMContextERKNS_10DataLayoutENS_3EVTEjNS_5AlignENS_17MachineMemOperand5FlagsEPj.exit

_ZNK4llvm18TargetLoweringBase30allowsMemoryAccessForAlignmentERNS_11LLVMContextERKNS_10DataLayoutENS_3EVTEjNS_5AlignENS_17MachineMemOperand5FlagsEPj.exit: ; preds = %24, %25, %26
  %.0.i = phi i1 [ %30, %26 ], [ true, %25 ], [ true, %24 ]
  call void @llvm.lifetime.end.p0(i64 16, ptr nonnull %10)
  ret i1 %.0.i
}